; ModuleID = '53/1339.c'
source_filename = "53/1339.c"
target datalayout = "e-m:e-p270:32:32-p271:32:32-p272:64:64-i64:64-f80:128-n8:16:32:64-S128"
target triple = "x86_64-pc-linux-gnu"

@.str = private unnamed_addr constant [3 x i8] c"%d\00", align 1
@.str.1 = private unnamed_addr constant [4 x i8] c",%d\00", align 1

; Function Attrs: noinline nounwind uwtable
define dso_local i32 @main() #0 {
  %1 = alloca i32, align 4
  %2 = alloca i32, align 4
  %3 = alloca [300 x i32], align 16
  %4 = alloca i32, align 4
  %5 = alloca i32, align 4
  %6 = alloca [300 x i32], align 16
  %7 = alloca i32, align 4
  %8 = alloca i32, align 4
  store i32 0, i32* %1, align 4
  store i32 0, i32* %7, align 4
  %9 = call i32 (i8*, ...) @__isoc99_scanf(i8* getelementptr inbounds ([3 x i8], [3 x i8]* @.str, i64 0, i64 0), i32* %2)
  store i32 0, i32* %4, align 4
  br label %10

10:                                               ; preds = %19, %0
  %11 = load i32, i32* %4, align 4
  %12 = load i32, i32* %2, align 4
  %13 = icmp slt i32 %11, %12
  br i1 %13, label %14, label %22

14:                                               ; preds = %10
  %15 = load i32, i32* %4, align 4
  %16 = sext i32 %15 to i64
  %17 = getelementptr inbounds [300 x i32], [300 x i32]* %3, i64 0, i64 %16
  %18 = call i32 (i8*, ...) @__isoc99_scanf(i8* getelementptr inbounds ([3 x i8], [3 x i8]* @.str, i64 0, i64 0), i32* %17)
  br label %19

19:                                               ; preds = %14
  %20 = load i32, i32* %4, align 4
  %21 = add nsw i32 %20, 1
  store i32 %21, i32* %4, align 4
  br label %10

22:                                               ; preds = %10
  store i32 0, i32* %4, align 4
  br label %23

23:                                               ; preds = %78, %22
  %24 = load i32, i32* %4, align 4
  %25 = load i32, i32* %2, align 4
  %26 = icmp slt i32 %24, %25
  br i1 %26, label %27, label %81

27:                                               ; preds = %23
  store i32 0, i32* %8, align 4
  %28 = load i32, i32* %4, align 4
  %29 = icmp eq i32 %28, 0
  br i1 %29, label %30, label %40

30:                                               ; preds = %27
  %31 = load i32, i32* %4, align 4
  %32 = sext i32 %31 to i64
  %33 = getelementptr inbounds [300 x i32], [300 x i32]* %3, i64 0, i64 %32
  %34 = load i32, i32* %33, align 4
  %35 = load i32, i32* %7, align 4
  %36 = sext i32 %35 to i64
  %37 = getelementptr inbounds [300 x i32], [300 x i32]* %6, i64 0, i64 %36
  store i32 %34, i32* %37, align 4
  %38 = load i32, i32* %7, align 4
  %39 = add nsw i32 %38, 1
  store i32 %39, i32* %7, align 4
  br label %77

40:                                               ; preds = %27
  store i32 0, i32* %5, align 4
  br label %41

41:                                               ; preds = %59, %40
  %42 = load i32, i32* %5, align 4
  %43 = load i32, i32* %4, align 4
  %44 = icmp slt i32 %42, %43
  br i1 %44, label %45, label %62

45:                                               ; preds = %41
  %46 = load i32, i32* %4, align 4
  %47 = sext i32 %46 to i64
  %48 = getelementptr inbounds [300 x i32], [300 x i32]* %3, i64 0, i64 %47
  %49 = load i32, i32* %48, align 4
  %50 = load i32, i32* %5, align 4
  %51 = sext i32 %50 to i64
  %52 = getelementptr inbounds [300 x i32], [300 x i32]* %3, i64 0, i64 %51
  %53 = load i32, i32* %52, align 4
  %54 = icmp ne i32 %49, %53
  br i1 %54, label %55, label %58

55:                                               ; preds = %45
  %56 = load i32, i32* %8, align 4
  %57 = add nsw i32 %56, 1
  store i32 %57, i32* %8, align 4
  br label %58

58:                                               ; preds = %55, %45
  br label %59

59:                                               ; preds = %58
  %60 = load i32, i32* %5, align 4
  %61 = add nsw i32 %60, 1
  store i32 %61, i32* %5, align 4
  br label %41

62:                                               ; preds = %41
  %63 = load i32, i32* %8, align 4
  %64 = load i32, i32* %4, align 4
  %65 = icmp eq i32 %63, %64
  br i1 %65, label %66, label %76

66:                                               ; preds = %62
  %67 = load i32, i32* %4, align 4
  %68 = sext i32 %67 to i64
  %69 = getelementptr inbounds [300 x i32], [300 x i32]* %3, i64 0, i64 %68
  %70 = load i32, i32* %69, align 4
  %71 = load i32, i32* %7, align 4
  %72 = sext i32 %71 to i64
  %73 = getelementptr inbounds [300 x i32], [300 x i32]* %6, i64 0, i64 %72
  store i32 %70, i32* %73, align 4
  %74 = load i32, i32* %7, align 4
  %75 = add nsw i32 %74, 1
  store i32 %75, i32* %7, align 4
  br label %76

76:                                               ; preds = %66, %62
  br label %77

77:                                               ; preds = %76, %30
  br label %78

78:                                               ; preds = %77
  %79 = load i32, i32* %4, align 4
  %80 = add nsw i32 %79, 1
  store i32 %80, i32* %4, align 4
  br label %23

81:                                               ; preds = %23
  %82 = getelementptr inbounds [300 x i32], [300 x i32]* %6, i64 0, i64 0
  %83 = load i32, i32* %82, align 16
  %84 = call i32 (i8*, ...) @printf(i8* getelementptr inbounds ([3 x i8], [3 x i8]* @.str, i64 0, i64 0), i32 %83)
  store i32 1, i32* %4, align 4
  br label %85

85:                                               ; preds = %95, %81
  %86 = load i32, i32* %4, align 4
  %87 = load i32, i32* %7, align 4
  %88 = icmp slt i32 %86, %87
  br i1 %88, label %89, label %98

89:                                               ; preds = %85
  %90 = load i32, i32* %4, align 4
  %91 = sext i32 %90 to i64
  %92 = getelementptr inbounds [300 x i32], [300 x i32]* %6, i64 0, i64 %91
  %93 = load i32, i32* %92, align 4
  %94 = call i32 (i8*, ...) @printf(i8* getelementptr inbounds ([4 x i8], [4 x i8]* @.str.1, i64 0, i64 0), i32 %93)
  br label %95

95:                                               ; preds = %89
  %96 = load i32, i32* %4, align 4
  %97 = add nsw i32 %96, 1
  store i32 %97, i32* %4, align 4
  br label %85

98:                                               ; preds = %85
  ret i32 0
}

declare dso_local i32 @__isoc99_scanf(i8*, ...) #1

declare dso_local i32 @printf(i8*, ...) #1


!llvm.module.flags = !{!0}
!llvm.ident = !{!1}

!0 = !{i32 1, !"wchar_size", i32 4}
!1 = !{!"clang version 10.0.0-4ubuntu1 "}
